target datalayout = "e-m:e-p270:32:32-p271:32:32-p272:64:64-i64:64-i128:128-f80:128-n8:16:32:64-S128"
target triple = "x86_64-pc-linux-gnu"

%class.mpz = type { i32, i8, ptr }
%class.svector.1 = type { %class.vector.2 }
%class.vector.2 = type { ptr }
%"class.upolynomial::core_manager" = type { ptr, %class.mpzzp_manager, %class.svector.1, %class.svector.1, %class.svector.1, %class.svector.1, %class.svector.1, %class.svector.1, %class.svector.1, [6 x %class.svector.1], %class.svector.1, %class.svector.1, %class.svector.1 }
%class.mpzzp_manager = type { ptr, i8, %class.mpz, %class.mpz, %class.mpz, i8, %class.mpz, %class.mpz, %class.mpz, %class.mpz }

; Function Attrs: inlinehint mustprogress nounwind uwtable
define linkonce_odr hidden void @_ZSt4swapIP3mpzENSt9enable_ifIXsr6__and_ISt6__not_ISt15__is_tuple_likeIT_EESt21is_move_constructibleIS5_ESt18is_move_assignableIS5_EEE5valueEvE4typeERS5_SE_(ptr noundef nonnull align 8 dereferenceable(8) %0, ptr noundef nonnull align 8 dereferenceable(8) %1) #10 comdat {
  %3 = alloca ptr, align 8
  %4 = alloca ptr, align 8
  %5 = alloca ptr, align 8
  store ptr %0, ptr %3, align 8, !tbaa !91
  store ptr %1, ptr %4, align 8, !tbaa !91
  call void @llvm.lifetime.start.p0(i64 8, ptr %5) #3
  %6 = load ptr, ptr %3, align 8, !tbaa !91
  %7 = load ptr, ptr %6, align 8, !tbaa !26
  store ptr %7, ptr %5, align 8, !tbaa !26
  %8 = load ptr, ptr %4, align 8, !tbaa !91
  %9 = load ptr, ptr %8, align 8, !tbaa !26
  %10 = load ptr, ptr %3, align 8, !tbaa !91
  store ptr %9, ptr %10, align 8, !tbaa !26
  %11 = load ptr, ptr %5, align 8, !tbaa !26
  %12 = load ptr, ptr %4, align 8, !tbaa !91
  store ptr %11, ptr %12, align 8, !tbaa !26
  call void @llvm.lifetime.end.p0(i64 8, ptr %5) #3
  ret void
}

; Function Attrs: mustprogress nounwind uwtable
define linkonce_odr hidden void @_ZN6vectorI3mpzLb0EjE4swapERS1_(ptr noundef nonnull align 8 dereferenceable(8) %0, ptr noundef nonnull align 8 dereferenceable(8) %1) #5 comdat align 2 {
  %3 = alloca ptr, align 8
  %4 = alloca ptr, align 8
  store ptr %0, ptr %3, align 8, !tbaa !40
  store ptr %1, ptr %4, align 8, !tbaa !40
  %5 = load ptr, ptr %3, align 8
  %6 = getelementptr inbounds nuw %class.vector.2, ptr %5, i32 0, i32 0
  %7 = load ptr, ptr %4, align 8, !tbaa !40
  %8 = getelementptr inbounds nuw %class.vector.2, ptr %7, i32 0, i32 0
  call void @_ZSt4swapIP3mpzENSt9enable_ifIXsr6__and_ISt6__not_ISt15__is_tuple_likeIT_EESt21is_move_constructibleIS5_ESt18is_move_assignableIS5_EEE5valueEvE4typeERS5_SE_(ptr noundef nonnull align 8 dereferenceable(8) %6, ptr noundef nonnull align 8 dereferenceable(8) %8) #3
  ret void
}

; Function Attrs: mustprogress uwtable
define hidden void @_ZN11upolynomial12core_manager3subEjPK3mpzjS3_R7svectorIS1_jE(ptr noundef nonnull align 8 dereferenceable(272) %0, i32 noundef %1, ptr noundef %2, i32 noundef %3, ptr noundef %4, ptr noundef nonnull align 8 dereferenceable(8) %5) #4 align 2 {
  %7 = alloca ptr, align 8
  %8 = alloca i32, align 4
  %9 = alloca ptr, align 8
  %10 = alloca i32, align 4
  %11 = alloca ptr, align 8
  %12 = alloca ptr, align 8
  store ptr %0, ptr %7, align 8, !tbaa !8
  store i32 %1, ptr %8, align 4, !tbaa !33
  store ptr %2, ptr %9, align 8, !tbaa !26
  store i32 %3, ptr %10, align 4, !tbaa !33
  store ptr %4, ptr %11, align 8, !tbaa !26
  store ptr %5, ptr %12, align 8, !tbaa !38
  %13 = load ptr, ptr %7, align 8
  %14 = load i32, ptr %8, align 4, !tbaa !33
  %15 = load ptr, ptr %9, align 8, !tbaa !26
  %16 = load i32, ptr %10, align 4, !tbaa !33
  %17 = load ptr, ptr %11, align 8, !tbaa !26
  %18 = getelementptr inbounds nuw %"class.upolynomial::core_manager", ptr %13, i32 0, i32 2
  call void @_ZN11upolynomial12core_manager8sub_coreEjPK3mpzjS3_R7svectorIS1_jE(ptr noundef nonnull align 8 dereferenceable(272) %13, i32 noundef %14, ptr noundef %15, i32 noundef %16, ptr noundef %17, ptr noundef nonnull align 8 dereferenceable(8) %18)
  %19 = load ptr, ptr %12, align 8, !tbaa !38
  %20 = getelementptr inbounds nuw %"class.upolynomial::core_manager", ptr %13, i32 0, i32 2
  call void @_ZN6vectorI3mpzLb0EjE4swapERS1_(ptr noundef nonnull align 8 dereferenceable(8) %19, ptr noundef nonnull align 8 dereferenceable(8) %20) #3
  ret void
}