; Function Attrs: mustprogress uwtable
define hidden void @_ZN11upolynomial12core_manager3subEjPK3mpzjS3_R7svectorIS1_jE(ptr noundef nonnull align 8 dereferenceable(272) %0, i32 noundef %1, ptr noundef %2, i32 noundef %3, ptr noundef %4, ptr noundef nonnull align 8 captures(none) dereferenceable(8) %5) local_unnamed_addr #3 align 2 {
  %7 = getelementptr inbounds nuw i8, ptr %0, i64 144
  tail call void @_ZN11upolynomial12core_manager8sub_coreEjPK3mpzjS3_R7svectorIS1_jE(ptr noundef nonnull align 8 dereferenceable(272) %0, i32 noundef %1, ptr noundef %2, i32 noundef %3, ptr noundef %4, ptr noundef nonnull align 8 dereferenceable(8) %7)
  %8 = load ptr, ptr %5, align 8, !tbaa !38
  %9 = load ptr, ptr %7, align 8, !tbaa !38
  store ptr %9, ptr %5, align 8, !tbaa !38
  store ptr %8, ptr %7, align 8, !tbaa !38
  ret void
}